; ModuleID = '35/2261.c'
source_filename = "35/2261.c"
target datalayout = "e-m:e-p270:32:32-p271:32:32-p272:64:64-i64:64-f80:128-n8:16:32:64-S128"
target triple = "x86_64-pc-linux-gnu"

@.str = private unnamed_addr constant [6 x i8] c"%d,%d\00", align 1
@.str.1 = private unnamed_addr constant [3 x i8] c"%d\00", align 1
@.str.2 = private unnamed_addr constant [6 x i8] c"%d+%d\00", align 1
@.str.3 = private unnamed_addr constant [3 x i8] c"No\00", align 1

; Function Attrs: noinline nounwind uwtable
define dso_local void @main() #0 {
  %1 = alloca i32, align 4
  %2 = alloca i32, align 4
  %3 = alloca i32, align 4
  %4 = alloca i32, align 4
  %5 = alloca i32, align 4
  %6 = alloca i32, align 4
  %7 = alloca i32, align 4
  %8 = alloca i32, align 4
  %9 = alloca [9 x [9 x i32]], align 16
  store i32 0, i32* %6, align 4
  %10 = call i32 (i8*, ...) @__isoc99_scanf(i8* getelementptr inbounds ([6 x i8], [6 x i8]* @.str, i64 0, i64 0), i32* %4, i32* %5)
  store i32 0, i32* %1, align 4
  br label %11

11:                                               ; preds = %32, %0
  %12 = load i32, i32* %1, align 4
  %13 = load i32, i32* %4, align 4
  %14 = icmp slt i32 %12, %13
  br i1 %14, label %15, label %35

15:                                               ; preds = %11
  store i32 0, i32* %2, align 4
  br label %16

16:                                               ; preds = %28, %15
  %17 = load i32, i32* %2, align 4
  %18 = load i32, i32* %5, align 4
  %19 = icmp slt i32 %17, %18
  br i1 %19, label %20, label %31

20:                                               ; preds = %16
  %21 = load i32, i32* %1, align 4
  %22 = sext i32 %21 to i64
  %23 = getelementptr inbounds [9 x [9 x i32]], [9 x [9 x i32]]* %9, i64 0, i64 %22
  %24 = load i32, i32* %2, align 4
  %25 = sext i32 %24 to i64
  %26 = getelementptr inbounds [9 x i32], [9 x i32]* %23, i64 0, i64 %25
  %27 = call i32 (i8*, ...) @__isoc99_scanf(i8* getelementptr inbounds ([3 x i8], [3 x i8]* @.str.1, i64 0, i64 0), i32* %26)
  br label %28

28:                                               ; preds = %20
  %29 = load i32, i32* %2, align 4
  %30 = add nsw i32 %29, 1
  store i32 %30, i32* %2, align 4
  br label %16

31:                                               ; preds = %16
  br label %32

32:                                               ; preds = %31
  %33 = load i32, i32* %1, align 4
  %34 = add nsw i32 %33, 1
  store i32 %34, i32* %1, align 4
  br label %11

35:                                               ; preds = %11
  store i32 0, i32* %1, align 4
  br label %36

36:                                               ; preds = %101, %35
  %37 = load i32, i32* %1, align 4
  %38 = load i32, i32* %4, align 4
  %39 = icmp slt i32 %37, %38
  br i1 %39, label %40, label %104

40:                                               ; preds = %36
  store i32 0, i32* %2, align 4
  store i32 0, i32* %7, align 4
  br label %41

41:                                               ; preds = %64, %40
  %42 = load i32, i32* %2, align 4
  %43 = load i32, i32* %5, align 4
  %44 = icmp slt i32 %42, %43
  br i1 %44, label %45, label %67

45:                                               ; preds = %41
  %46 = load i32, i32* %1, align 4
  %47 = sext i32 %46 to i64
  %48 = getelementptr inbounds [9 x [9 x i32]], [9 x [9 x i32]]* %9, i64 0, i64 %47
  %49 = load i32, i32* %2, align 4
  %50 = sext i32 %49 to i64
  %51 = getelementptr inbounds [9 x i32], [9 x i32]* %48, i64 0, i64 %50
  %52 = load i32, i32* %51, align 4
  %53 = load i32, i32* %1, align 4
  %54 = sext i32 %53 to i64
  %55 = getelementptr inbounds [9 x [9 x i32]], [9 x [9 x i32]]* %9, i64 0, i64 %54
  %56 = load i32, i32* %7, align 4
  %57 = sext i32 %56 to i64
  %58 = getelementptr inbounds [9 x i32], [9 x i32]* %55, i64 0, i64 %57
  %59 = load i32, i32* %58, align 4
  %60 = icmp sgt i32 %52, %59
  br i1 %60, label %61, label %63

61:                                               ; preds = %45
  %62 = load i32, i32* %2, align 4
  store i32 %62, i32* %7, align 4
  br label %63

63:                                               ; preds = %61, %45
  br label %64

64:                                               ; preds = %63
  %65 = load i32, i32* %2, align 4
  %66 = add nsw i32 %65, 1
  store i32 %66, i32* %2, align 4
  br label %41

67:                                               ; preds = %41
  store i32 0, i32* %3, align 4
  store i32 0, i32* %8, align 4
  br label %68

68:                                               ; preds = %92, %67
  %69 = load i32, i32* %3, align 4
  %70 = load i32, i32* %4, align 4
  %71 = icmp slt i32 %69, %70
  br i1 %71, label %72, label %95

72:                                               ; preds = %68
  %73 = load i32, i32* %3, align 4
  %74 = sext i32 %73 to i64
  %75 = getelementptr inbounds [9 x [9 x i32]], [9 x [9 x i32]]* %9, i64 0, i64 %74
  %76 = load i32, i32* %7, align 4
  %77 = sext i32 %76 to i64
  %78 = getelementptr inbounds [9 x i32], [9 x i32]* %75, i64 0, i64 %77
  %79 = load i32, i32* %78, align 4
  %80 = load i32, i32* %1, align 4
  %81 = sext i32 %80 to i64
  %82 = getelementptr inbounds [9 x [9 x i32]], [9 x [9 x i32]]* %9, i64 0, i64 %81
  %83 = load i32, i32* %7, align 4
  %84 = sext i32 %83 to i64
  %85 = getelementptr inbounds [9 x i32], [9 x i32]* %82, i64 0, i64 %84
  %86 = load i32, i32* %85, align 4
  %87 = icmp sge i32 %79, %86
  br i1 %87, label %88, label %91

88:                                               ; preds = %72
  %89 = load i32, i32* %8, align 4
  %90 = add nsw i32 %89, 1
  store i32 %90, i32* %8, align 4
  br label %91

91:                                               ; preds = %88, %72
  br label %92

92:                                               ; preds = %91
  %93 = load i32, i32* %3, align 4
  %94 = add nsw i32 %93, 1
  store i32 %94, i32* %3, align 4
  br label %68

95:                                               ; preds = %68
  %96 = load i32, i32* %8, align 4
  %97 = load i32, i32* %4, align 4
  %98 = icmp eq i32 %96, %97
  br i1 %98, label %99, label %100

99:                                               ; preds = %95
  store i32 1, i32* %6, align 4
  br label %104

100:                                              ; preds = %95
  br label %101

101:                                              ; preds = %100
  %102 = load i32, i32* %1, align 4
  %103 = add nsw i32 %102, 1
  store i32 %103, i32* %1, align 4
  br label %36

104:                                              ; preds = %99, %36
  %105 = load i32, i32* %6, align 4
  %106 = icmp ne i32 %105, 0
  br i1 %106, label %107, label %111

107:                                              ; preds = %104
  %108 = load i32, i32* %1, align 4
  %109 = load i32, i32* %7, align 4
  %110 = call i32 (i8*, ...) @printf(i8* getelementptr inbounds ([6 x i8], [6 x i8]* @.str.2, i64 0, i64 0), i32 %108, i32 %109)
  br label %113

111:                                              ; preds = %104
  %112 = call i32 (i8*, ...) @printf(i8* getelementptr inbounds ([3 x i8], [3 x i8]* @.str.3, i64 0, i64 0))
  br label %113

113:                                              ; preds = %111, %107
  ret void
}

declare dso_local i32 @__isoc99_scanf(i8*, ...) #1

declare dso_local i32 @printf(i8*, ...) #1


!llvm.module.flags = !{!0}
!llvm.ident = !{!1}

!0 = !{i32 1, !"wchar_size", i32 4}
!1 = !{!"clang version 10.0.0-4ubuntu1 "}
